target datalayout = "e-m:e-p270:32:32-p271:32:32-p272:64:64-i64:64-i128:128-f80:128-n8:16:32:64-S128"
target triple = "x86_64-pc-linux-gnu"

@.str.2 = private unnamed_addr constant [97 x i8] c"generated/home/dtcxzyw/WorkSpace/Projects/compilers/llvm-opt-benchmark/bench/hdf5/hdf5/src/H5T.c\00", align 1
@H5E_DATATYPE_g = external global i64, align 8
@H5E_CANTALLOC_g = external global i64, align 8
@H5E_CANTRELEASE_g = external global i64, align 8
@H5E_CANTENCODE_g = external global i64, align 8
@__func__.H5T_encode = private unnamed_addr constant [11 x i8] c"H5T_encode\00", align 1
@.str.283 = private unnamed_addr constant [32 x i8] c"can't allocate fake file struct\00", align 1
@H5E_BADSIZE_g = external global i64, align 8
@.str.284 = private unnamed_addr constant [25 x i8] c"can't find datatype size\00", align 1
@.str.285 = private unnamed_addr constant [20 x i8] c"can't encode object\00", align 1
@.str.286 = private unnamed_addr constant [35 x i8] c"unable to release fake file struct\00", align 1

; Function Attrs: nounwind uwtable
define i32 @H5T_encode(ptr noundef %0, ptr noundef %1, ptr noundef %2) #0 {
  %4 = alloca ptr, align 8
  %5 = alloca ptr, align 8
  %6 = alloca ptr, align 8
  %7 = alloca i64, align 8
  %8 = alloca ptr, align 8
  %9 = alloca i32, align 4
  %10 = alloca i8, align 1
  store ptr %0, ptr %4, align 8
  store ptr %1, ptr %5, align 8
  store ptr %2, ptr %6, align 8
  store ptr null, ptr %8, align 8
  store i32 0, ptr %9, align 4
  store i8 0, ptr %10, align 1
  %11 = call ptr @H5F_fake_alloc(i8 noundef zeroext 0)
  store ptr %11, ptr %8, align 8
  %12 = icmp eq ptr null, %11
  br i1 %12, label %13, label %28

13:                                               ; preds = %3
  br label %14

14:                                               ; preds = %13
  br label %15

15:                                               ; preds = %14
  br label %16

16:                                               ; preds = %15
  %17 = load i64, ptr @H5E_DATATYPE_g, align 8
  %18 = load i64, ptr @H5E_CANTALLOC_g, align 8
  %19 = call i32 (ptr, ptr, i32, i64, i64, ptr, ...) @H5E_printf_stack(ptr noundef @.str.2, ptr noundef @__func__.H5T_encode, i32 noundef 3273, i64 noundef %17, i64 noundef %18, ptr noundef @.str.283)
  br label %20

20:                                               ; preds = %16
  store i8 1, ptr %10, align 1
  %21 = load i8, ptr %10, align 1
  %22 = trunc i8 %21 to i1
  %23 = zext i1 %22 to i8
  store i8 %23, ptr %10, align 1
  br label %24

24:                                               ; preds = %20
  br label %25

25:                                               ; preds = %24
  store i32 -1, ptr %9, align 4
  br label %90

26:                                               ; No predecessors!
  br label %27

27:                                               ; preds = %26
  br label %28

28:                                               ; preds = %27, %3
  %29 = load ptr, ptr %8, align 8
  %30 = load ptr, ptr %4, align 8
  %31 = call i64 @H5O_msg_raw_size(ptr noundef %29, i32 noundef 3, i1 noundef zeroext true, ptr noundef %30)
  store i64 %31, ptr %7, align 8
  %32 = icmp eq i64 %31, 0
  br i1 %32, label %33, label %48

33:                                               ; preds = %28
  br label %34

34:                                               ; preds = %33
  br label %35

35:                                               ; preds = %34
  br label %36

36:                                               ; preds = %35
  %37 = load i64, ptr @H5E_DATATYPE_g, align 8
  %38 = load i64, ptr @H5E_BADSIZE_g, align 8
  %39 = call i32 (ptr, ptr, i32, i64, i64, ptr, ...) @H5E_printf_stack(ptr noundef @.str.2, ptr noundef @__func__.H5T_encode, i32 noundef 3277, i64 noundef %37, i64 noundef %38, ptr noundef @.str.284)
  br label %40

40:                                               ; preds = %36
  store i8 1, ptr %10, align 1
  %41 = load i8, ptr %10, align 1
  %42 = trunc i8 %41 to i1
  %43 = zext i1 %42 to i8
  store i8 %43, ptr %10, align 1
  br label %44

44:                                               ; preds = %40
  br label %45

45:                                               ; preds = %44
  store i32 -1, ptr %9, align 4
  br label %90

46:                                               ; No predecessors!
  br label %47

47:                                               ; preds = %46
  br label %48

48:                                               ; preds = %47, %28
  %49 = load ptr, ptr %5, align 8
  %50 = icmp ne ptr %49, null
  br i1 %50, label %51, label %58

51:                                               ; preds = %48
  %52 = load ptr, ptr %6, align 8
  %53 = load i64, ptr %52, align 8
  %54 = load i64, ptr %7, align 8
  %55 = add i64 %54, 1
  %56 = add i64 %55, 1
  %57 = icmp ult i64 %53, %56
  br i1 %57, label %58, label %63

58:                                               ; preds = %51, %48
  %59 = load i64, ptr %7, align 8
  %60 = add i64 %59, 1
  %61 = add i64 %60, 1
  %62 = load ptr, ptr %6, align 8
  store i64 %61, ptr %62, align 8
  br label %89

63:                                               ; preds = %51
  %64 = load ptr, ptr %5, align 8
  %65 = getelementptr inbounds i8, ptr %64, i32 1
  store ptr %65, ptr %5, align 8
  store i8 3, ptr %64, align 1
  %66 = load ptr, ptr %5, align 8
  %67 = getelementptr inbounds i8, ptr %66, i32 1
  store ptr %67, ptr %5, align 8
  store i8 0, ptr %66, align 1
  %68 = load ptr, ptr %8, align 8
  %69 = load ptr, ptr %5, align 8
  %70 = load ptr, ptr %4, align 8
  %71 = call i32 @H5O_msg_encode(ptr noundef %68, i32 noundef 3, i1 noundef zeroext true, ptr noundef %69, ptr noundef %70)
  %72 = icmp slt i32 %71, 0
  br i1 %72, label %73, label %88

73:                                               ; preds = %63
  br label %74

74:                                               ; preds = %73
  br label %75

75:                                               ; preds = %74
  br label %76

76:                                               ; preds = %75
  %77 = load i64, ptr @H5E_DATATYPE_g, align 8
  %78 = load i64, ptr @H5E_CANTENCODE_g, align 8
  %79 = call i32 (ptr, ptr, i32, i64, i64, ptr, ...) @H5E_printf_stack(ptr noundef @.str.2, ptr noundef @__func__.H5T_encode, i32 noundef 3291, i64 noundef %77, i64 noundef %78, ptr noundef @.str.285)
  br label %80

80:                                               ; preds = %76
  store i8 1, ptr %10, align 1
  %81 = load i8, ptr %10, align 1
  %82 = trunc i8 %81 to i1
  %83 = zext i1 %82 to i8
  store i8 %83, ptr %10, align 1
  br label %84

84:                                               ; preds = %80
  br label %85

85:                                               ; preds = %84
  store i32 -1, ptr %9, align 4
  br label %90

86:                                               ; No predecessors!
  br label %87

87:                                               ; preds = %86
  br label %88

88:                                               ; preds = %87, %63
  br label %89

89:                                               ; preds = %88, %58
  br label %90

90:                                               ; preds = %89, %85, %45, %25
  %91 = load ptr, ptr %8, align 8
  %92 = icmp ne ptr %91, null
  br i1 %92, label %93, label %110

93:                                               ; preds = %90
  %94 = load ptr, ptr %8, align 8
  %95 = call i32 @H5F_fake_free(ptr noundef %94)
  %96 = icmp slt i32 %95, 0
  br i1 %96, label %97, label %110

97:                                               ; preds = %93
  br label %98

98:                                               ; preds = %97
  br label %99

99:                                               ; preds = %98
  br label %100

100:                                              ; preds = %99
  %101 = load i64, ptr @H5E_DATATYPE_g, align 8
  %102 = load i64, ptr @H5E_CANTRELEASE_g, align 8
  %103 = call i32 (ptr, ptr, i32, i64, i64, ptr, ...) @H5E_printf_stack(ptr noundef @.str.2, ptr noundef @__func__.H5T_encode, i32 noundef 3297, i64 noundef %101, i64 noundef %102, ptr noundef @.str.286)
  br label %104

104:                                              ; preds = %100
  store i8 1, ptr %10, align 1
  %105 = load i8, ptr %10, align 1
  %106 = trunc i8 %105 to i1
  %107 = zext i1 %106 to i8
  store i8 %107, ptr %10, align 1
  br label %108

108:                                              ; preds = %104
  store i32 -1, ptr %9, align 4
  br label %109

109:                                              ; preds = %108
  br label %110

110:                                              ; preds = %109, %93, %90
  %111 = load i32, ptr %9, align 4
  ret i32 %111
}