; Function Attrs: nounwind uwtable
define range(i32 -1, 1) i32 @H5T_encode(ptr noundef %0, ptr noundef %1, ptr nocapture noundef %2) local_unnamed_addr #0 {
  %4 = tail call ptr @H5F_fake_alloc(i8 noundef zeroext 0) #17
  %5 = icmp eq ptr %4, null
  br i1 %5, label %28, label %6

6:                                                ; preds = %3
  %7 = tail call i64 @H5O_msg_raw_size(ptr noundef nonnull %4, i32 noundef 3, i1 noundef zeroext true, ptr noundef %0) #17
  %8 = icmp eq i64 %7, 0
  br i1 %8, label %9, label %13

9:                                                ; preds = %6
  %10 = load i64, ptr @H5E_DATATYPE_g, align 8
  %11 = load i64, ptr @H5E_BADSIZE_g, align 8
  %12 = tail call i32 (ptr, ptr, i32, i64, i64, ptr, ...) @H5E_printf_stack(ptr noundef nonnull @.str.2, ptr noundef nonnull @__func__.H5T_encode, i32 noundef 3277, i64 noundef %10, i64 noundef %11, ptr noundef nonnull @.str.284) #17
  br label %32

13:                                               ; preds = %6
  %.not = icmp eq ptr %1, null
  br i1 %.not, label %._crit_edge, label %14

._crit_edge:                                      ; preds = %13
  %.pre = add i64 %7, 2
  br label %18

14:                                               ; preds = %13
  %15 = load i64, ptr %2, align 8
  %16 = add i64 %7, 2
  %17 = icmp ult i64 %15, %16
  br i1 %17, label %18, label %19

18:                                               ; preds = %._crit_edge, %14
  %.pre-phi = phi i64 [ %.pre, %._crit_edge ], [ %16, %14 ]
  store i64 %.pre-phi, ptr %2, align 8
  br label %32

19:                                               ; preds = %14
  %20 = getelementptr inbounds i8, ptr %1, i64 1
  store i8 3, ptr %1, align 1
  %21 = getelementptr inbounds i8, ptr %1, i64 2
  store i8 0, ptr %20, align 1
  %22 = tail call i32 @H5O_msg_encode(ptr noundef nonnull %4, i32 noundef 3, i1 noundef zeroext true, ptr noundef nonnull %21, ptr noundef %0) #17
  %23 = icmp slt i32 %22, 0
  br i1 %23, label %24, label %32

24:                                               ; preds = %19
  %25 = load i64, ptr @H5E_DATATYPE_g, align 8
  %26 = load i64, ptr @H5E_CANTENCODE_g, align 8
  %27 = tail call i32 (ptr, ptr, i32, i64, i64, ptr, ...) @H5E_printf_stack(ptr noundef nonnull @.str.2, ptr noundef nonnull @__func__.H5T_encode, i32 noundef 3291, i64 noundef %25, i64 noundef %26, ptr noundef nonnull @.str.285) #17
  br label %32

28:                                               ; preds = %3
  %29 = load i64, ptr @H5E_DATATYPE_g, align 8
  %30 = load i64, ptr @H5E_CANTALLOC_g, align 8
  %31 = tail call i32 (ptr, ptr, i32, i64, i64, ptr, ...) @H5E_printf_stack(ptr noundef nonnull @.str.2, ptr noundef nonnull @__func__.H5T_encode, i32 noundef 3273, i64 noundef %29, i64 noundef %30, ptr noundef nonnull @.str.283) #17
  br label %39

32:                                               ; preds = %18, %19, %24, %9
  %.0.ph = phi i32 [ 0, %19 ], [ -1, %24 ], [ 0, %18 ], [ -1, %9 ]
  %33 = tail call i32 @H5F_fake_free(ptr noundef nonnull %4) #17
  %34 = icmp slt i32 %33, 0
  br i1 %34, label %35, label %39

35:                                               ; preds = %32
  %36 = load i64, ptr @H5E_DATATYPE_g, align 8
  %37 = load i64, ptr @H5E_CANTRELEASE_g, align 8
  %38 = tail call i32 (ptr, ptr, i32, i64, i64, ptr, ...) @H5E_printf_stack(ptr noundef nonnull @.str.2, ptr noundef nonnull @__func__.H5T_encode, i32 noundef 3297, i64 noundef %36, i64 noundef %37, ptr noundef nonnull @.str.286) #17
  br label %39

39:                                               ; preds = %28, %35, %32
  %.1 = phi i32 [ -1, %35 ], [ %.0.ph, %32 ], [ -1, %28 ]
  ret i32 %.1
}